; Function Attrs: nounwind uwtable
define i64 @ossl_decode_der_dsa_sig(ptr noundef %0, ptr noundef %1, ptr noundef captures(none) %2, i64 noundef %3) local_unnamed_addr #0 {
  %5 = alloca %struct.PACKET, align 8
  call void @llvm.lifetime.start.p0(i64 16, ptr nonnull %5) #4
  %or.cond31 = icmp slt i64 %3, 1
  br i1 %or.cond31, label %PACKET_buf_init.exit.thread, label %PACKET_get_1.exit

PACKET_get_1.exit:                                ; preds = %4
  %6 = load ptr, ptr %2, align 8, !tbaa !3
  %7 = load i8, ptr %6, align 1, !tbaa !13
  %8 = icmp ne i8 %7, 48
  %.not.i.i.i = icmp eq i64 %3, 1
  %or.cond32 = or i1 %.not.i.i.i, %8
  br i1 %or.cond32, label %PACKET_buf_init.exit.thread, label %9

9:                                                ; preds = %PACKET_get_1.exit
  %10 = getelementptr inbounds nuw i8, ptr %6, i64 1
  %11 = load i8, ptr %10, align 1, !tbaa !13
  %12 = getelementptr inbounds nuw i8, ptr %6, i64 2
  %13 = add nsw i64 %3, -2
  %14 = icmp sgt i8 %11, -1
  br i1 %14, label %15, label %21

15:                                               ; preds = %9
  %16 = zext nneg i8 %11 to i64
  %17 = icmp samesign ult i64 %13, %16
  br i1 %17, label %PACKET_buf_init.exit.thread, label %18

18:                                               ; preds = %15
  store ptr %12, ptr %5, align 8, !tbaa !12
  %19 = getelementptr inbounds nuw i8, ptr %5, i64 8
  store i64 %16, ptr %19, align 8, !tbaa !10
  %20 = getelementptr inbounds nuw i8, ptr %12, i64 %16
  br label %ossl_decode_der_length.exit

21:                                               ; preds = %9
  switch i8 %11, label %PACKET_buf_init.exit.thread [
    i8 -127, label %22
    i8 -126, label %32
  ]

22:                                               ; preds = %21
  %.not.i.i.i.i = icmp eq i64 %13, 0
  br i1 %.not.i.i.i.i, label %PACKET_buf_init.exit.thread, label %23

23:                                               ; preds = %22
  %24 = load i8, ptr %12, align 1, !tbaa !13
  %25 = add nsw i64 %3, -3
  %26 = zext i8 %24 to i64
  %27 = icmp samesign ult i64 %25, %26
  br i1 %27, label %PACKET_buf_init.exit.thread, label %28

28:                                               ; preds = %23
  %29 = getelementptr inbounds nuw i8, ptr %6, i64 3
  %30 = getelementptr inbounds nuw i8, ptr %29, i64 %26
  store ptr %29, ptr %5, align 8, !tbaa !12
  %31 = getelementptr inbounds nuw i8, ptr %5, i64 8
  store i64 %26, ptr %31, align 8, !tbaa !10
  br label %ossl_decode_der_length.exit

32:                                               ; preds = %21
  %33 = icmp samesign ult i64 %3, 4
  br i1 %33, label %PACKET_buf_init.exit.thread, label %34

34:                                               ; preds = %32
  %35 = load i8, ptr %12, align 1, !tbaa !13
  %36 = zext i8 %35 to i64
  %37 = shl nuw nsw i64 %36, 8
  %38 = getelementptr inbounds nuw i8, ptr %6, i64 3
  %39 = load i8, ptr %38, align 1, !tbaa !13
  %40 = zext i8 %39 to i64
  %41 = or disjoint i64 %37, %40
  %42 = add nsw i64 %3, -4
  %43 = icmp samesign ult i64 %42, %41
  br i1 %43, label %PACKET_buf_init.exit.thread, label %44

44:                                               ; preds = %34
  %45 = getelementptr inbounds nuw i8, ptr %6, i64 4
  %46 = getelementptr inbounds nuw i8, ptr %45, i64 %41
  store ptr %45, ptr %5, align 8, !tbaa !12
  %47 = getelementptr inbounds nuw i8, ptr %5, i64 8
  store i64 %41, ptr %47, align 8, !tbaa !10
  br label %ossl_decode_der_length.exit

ossl_decode_der_length.exit:                      ; preds = %44, %28, %18
  %.sroa.0.2 = phi ptr [ %20, %18 ], [ %46, %44 ], [ %30, %28 ]
  %48 = call i32 @ossl_decode_der_integer(ptr noundef nonnull %5, ptr noundef %0)
  %.not10 = icmp eq i32 %48, 0
  br i1 %.not10, label %PACKET_buf_init.exit.thread, label %49

49:                                               ; preds = %ossl_decode_der_length.exit
  %50 = call i32 @ossl_decode_der_integer(ptr noundef nonnull %5, ptr noundef %1)
  %.not11 = icmp ne i32 %50, 0
  %51 = getelementptr inbounds nuw i8, ptr %5, i64 8
  %.val = load i64, ptr %51, align 8
  %.not12 = icmp eq i64 %.val, 0
  %or.cond33 = select i1 %.not11, i1 %.not12, i1 false
  br i1 %or.cond33, label %52, label %PACKET_buf_init.exit.thread

52:                                               ; preds = %49
  %53 = load ptr, ptr %2, align 8, !tbaa !3
  %54 = ptrtoint ptr %.sroa.0.2 to i64
  %55 = ptrtoint ptr %53 to i64
  %56 = sub i64 %54, %55
  %57 = getelementptr inbounds nuw i8, ptr %53, i64 %56
  store ptr %57, ptr %2, align 8, !tbaa !3
  br label %PACKET_buf_init.exit.thread

PACKET_buf_init.exit.thread:                      ; preds = %34, %32, %23, %22, %15, %21, %4, %PACKET_get_1.exit, %ossl_decode_der_length.exit, %49, %52
  %.0 = phi i64 [ %56, %52 ], [ 0, %49 ], [ 0, %ossl_decode_der_length.exit ], [ 0, %PACKET_get_1.exit ], [ 0, %4 ], [ 0, %21 ], [ 0, %15 ], [ 0, %22 ], [ 0, %23 ], [ 0, %32 ], [ 0, %34 ]
  call void @llvm.lifetime.end.p0(i64 16, ptr nonnull %5) #4
  ret i64 %.0
}